(dp0
VServer
p1
Vcmsweb.cern.ch
p2
sVPort
p3
V
p4
sVRequestName
p5
V250512_170242:bbapi_crab_20250512_190122
p6
sVvoRole
p7
VNULL
p8
sVvoGroup
p9
g4
sVinstance
p10
Vprod
p11
sVOriginalConfig
p12
ccopy_reg
_reconstructor
p13
(cWMCore.Configuration
Configuration
p14
c__builtin__
object
p15
Ntp16
Rp17
(dp18
V_internal_sections
p19
(lp20
VGeneral
p21
aVJobType
p22
aVData
p23
aVSite
p24
aVUser
p25
aVDebug
p26
asg21
g13
(cWMCore.Configuration
ConfigSection
p27
g15
Ntp28
Rp29
(dp30
V_internal_documentation
p31
g4
sV_internal_name
p32
g21
sV_internal_settings
p33
c__builtin__
set
p34
((lp35
VtransferLogs
p36
aVworkArea
p37
aVrequestName
p38
aVtransferOutputs
p39
atp40
Rp41
sV_internal_docstrings
p42
(dp43
sV_internal_children
p44
g34
((lp45
tp46
Rp47
sV_internal_parent_ref
p48
NsV_internal_skipChecks
p49
I00
sg38
g4
sg37
Vcrab_projects_new
p50
sg39
I01
sg36
I01
sbsg22
g13
(g27
g15
Ntp51
Rp52
(dp53
g31
g4
sg32
g22
sg33
g34
((lp54
VpsetName
p55
aVinputFiles
p56
aVallowUndistributedCMSSW
p57
aVpluginName
p58
atp59
Rp60
sg42
(dp61
sg44
g34
((lp62
tp63
Rp64
sg48
Nsg49
I00
sg58
VAnalysis
p65
sg55
VDRN_reg_final_cfg.py
p66
sg56
(lp67
Vmodels
p68
asg57
I01
sbsg23
g13
(g27
g15
Ntp69
Rp70
(dp71
g31
g4
sg32
g23
sg33
g34
((lp72
Vsplitting
p73
aVinputDataset
p74
aVunitsPerJob
p75
aVtotalUnits
p76
aVoutLFNDirBase
p77
aVpublication
p78
atp79
Rp80
sg42
(dp81
sg44
g34
((lp82
tp83
Rp84
sg48
Nsg49
I00
sg74
V/DoublePhoton_Pt-5To300-gun/RunIISummer20UL18RECO-FlatPU0to70EdalIdealGT_EdalIdealGT_106X_upgrade2018_realistic_v11_L1v1_EcalIdealIC-v2/AODSIM
p85
sg73
VFileBased
p86
sg75
I500
sg78
I00
sg76
I-1
sg77
V/store/user/bbapi/
p87
sbsg24
g13
(g27
g15
Ntp88
Rp89
(dp90
g31
g4
sg32
g24
sg33
g34
((lp91
VstorageSite
p92
atp93
Rp94
sg42
(dp95
sg44
g34
((lp96
tp97
Rp98
sg48
Nsg49
I00
sg92
VT3_CH_CERNBOX
p99
sbsg25
g13
(g27
g15
Ntp100
Rp101
(dp102
g31
g4
sg32
g25
sg33
g34
((lp103
tp104
Rp105
sg42
(dp106
sg44
g34
((lp107
tp108
Rp109
sg48
Nsg49
I00
sbsg26
g13
(g27
g15
Ntp110
Rp111
(dp112
g31
g4
sg32
g26
sg33
g34
((lp113
tp114
Rp115
sg42
(dp116
sg44
g34
((lp117
tp118
Rp119
sg48
Nsg49
I00
sbsbs.