(dp0
VServer
p1
Vcmsweb.cern.ch
p2
sVPort
p3
V
p4
sVRequestName
p5
V250514_145953:bbapi_crab_20250514_165329
p6
sVvoRole
p7
VNULL
p8
sVvoGroup
p9
g4
sVinstance
p10
Vprod
p11
sVOriginalConfig
p12
ccopy_reg
_reconstructor
p13
(cWMCore.Configuration
Configuration
p14
c__builtin__
object
p15
Ntp16
Rp17
(dp18
V_internal_sections
p19
(lp20
VGeneral
p21
aVJobType
p22
aVData
p23
aVSite
p24
aVUser
p25
aVDebug
p26
asg21
g13
(cWMCore.Configuration
ConfigSection
p27
g15
Ntp28
Rp29
(dp30
V_internal_documentation
p31
g4
sV_internal_name
p32
g21
sV_internal_settings
p33
c__builtin__
set
p34
((lp35
VtransferLogs
p36
aVworkArea
p37
aVrequestName
p38
aVtransferOutputs
p39
atp40
Rp41
sV_internal_docstrings
p42
(dp43
sV_internal_children
p44
g34
((lp45
tp46
Rp47
sV_internal_parent_ref
p48
NsV_internal_skipChecks
p49
I00
sg38
g4
sg37
Vcrab_projects_new_2
p50
sg39
I01
sg36
I01
sbsg22
g13
(g27
g15
Ntp51
Rp52
(dp53
g31
g4
sg32
g22
sg33
g34
((lp54
VinputFiles
p55
aVallowUndistributedCMSSW
p56
aVscriptExe
p57
aVoutputFiles
p58
aVpluginName
p59
aVpsetName
p60
atp61
Rp62
sg42
(dp63
sg44
g34
((lp64
tp65
Rp66
sg48
Nsg49
I00
sg59
VAnalysis
p67
sg60
VDRN_reg_final_cfg_new.py
p68
sg57
Vbash_wrapper_drn.sh
p69
sg55
(lp70
Vmodels
p71
ag68
asg58
(lp72
Voutput_crab.root
p73
aVtriton.log
p74
asg56
I01
sbsg23
g13
(g27
g15
Ntp75
Rp76
(dp77
g31
g4
sg32
g23
sg33
g34
((lp78
VtotalUnits
p79
aVsplitting
p80
aVunitsPerJob
p81
aVinputDataset
p82
aVpublication
p83
aVinputDBS
p84
aVoutLFNDirBase
p85
atp86
Rp87
sg42
(dp88
sg44
g34
((lp89
tp90
Rp91
sg48
Nsg49
I00
sg82
V/FourElectronsGunPt1-500_13TeV-pythia8_RunIISummer20UL18_pfThresTL235_pedUL18_AODSIM/bmarzocc-AODSIM-cc069a36518b089f990f643770dd5f39/USER
p92
sg80
VFileBased
p93
sg81
I5
sg83
I00
sg79
I100
sg84
Vphys03
p94
sg85
V/store/user/bbapi/
p95
sbsg24
g13
(g27
g15
Ntp96
Rp97
(dp98
g31
g4
sg32
g24
sg33
g34
((lp99
VstorageSite
p100
atp101
Rp102
sg42
(dp103
sg44
g34
((lp104
tp105
Rp106
sg48
Nsg49
I00
sg100
VT3_CH_CERNBOX
p107
sbsg25
g13
(g27
g15
Ntp108
Rp109
(dp110
g31
g4
sg32
g25
sg33
g34
((lp111
tp112
Rp113
sg42
(dp114
sg44
g34
((lp115
tp116
Rp117
sg48
Nsg49
I00
sbsg26
g13
(g27
g15
Ntp118
Rp119
(dp120
g31
g4
sg32
g26
sg33
g34
((lp121
tp122
Rp123
sg42
(dp124
sg44
g34
((lp125
tp126
Rp127
sg48
Nsg49
I00
sbsbs.