(dp0
VServer
p1
Vcmsweb.cern.ch
p2
sVPort
p3
V
p4
sVRequestName
p5
V250310_105154:bbapi_crab_triton_server_job
p6
sVvoRole
p7
VNULL
p8
sVvoGroup
p9
g4
sVinstance
p10
Vprod
p11
sVOriginalConfig
p12
ccopy_reg
_reconstructor
p13
(cWMCore.Configuration
Configuration
p14
c__builtin__
object
p15
Ntp16
Rp17
(dp18
V_internal_sections
p19
(lp20
VGeneral
p21
aVJobType
p22
aVData
p23
aVSite
p24
aVUser
p25
aVDebug
p26
asg21
g13
(cWMCore.Configuration
ConfigSection
p27
g15
Ntp28
Rp29
(dp30
V_internal_documentation
p31
g4
sV_internal_name
p32
g21
sV_internal_settings
p33
c__builtin__
set
p34
((lp35
VrequestName
p36
aVworkArea
p37
aVtransferLogs
p38
aVtransferOutputs
p39
atp40
Rp41
sV_internal_docstrings
p42
(dp43
sV_internal_children
p44
g34
((lp45
tp46
Rp47
sV_internal_parent_ref
p48
NsV_internal_skipChecks
p49
I00
sg36
Vtriton_server_job
p50
sg37
Vcrab_projects
p51
sg39
I01
sg38
I01
sbsg22
g13
(g27
g15
Ntp52
Rp53
(dp54
g31
g4
sg32
g22
sg33
g34
((lp55
VpsetName
p56
aVoutputFiles
p57
aVallowUndistributedCMSSW
p58
aVscriptExe
p59
aVinputFiles
p60
aVpluginName
p61
atp62
Rp63
sg42
(dp64
sg44
g34
((lp65
tp66
Rp67
sg48
Nsg49
I00
sg61
VPrivateMC
p68
sg56
Vdummy.py
p69
sg58
I01
sg57
(lp70
Vtriton_server.log
p71
asg60
(lp72
V/eos/home-b/bbapi/Energy_regression/CMSSW_13_3_3/src/test/RecoEgamma-EgammaPhotonProducers/models/photonObjectCombined
p73
aVimage_folder.tar.gz
p74
asg59
Vrun_triton.sh
p75
sbsg23
g13
(g27
g15
Ntp76
Rp77
(dp78
g31
g4
sg32
g23
sg33
g34
((lp79
VoutLFNDirBase
p80
aVtotalUnits
p81
aVunitsPerJob
p82
aVsplitting
p83
aVpublication
p84
aVoutputPrimaryDataset
p85
atp86
Rp87
sg42
(dp88
sg44
g34
((lp89
tp90
Rp91
sg48
Nsg49
I00
sg85
VTritonServerTest
p92
sg83
VEventBased
p93
sg82
I1
sg81
I1
sg80
V/store/user/bbapi/
p94
sg84
I00
sbsg24
g13
(g27
g15
Ntp95
Rp96
(dp97
g31
g4
sg32
g24
sg33
g34
((lp98
VstorageSite
p99
atp100
Rp101
sg42
(dp102
sg44
g34
((lp103
tp104
Rp105
sg48
Nsg49
I00
sg99
VT3_CH_CERNBOX
p106
sbsg25
g13
(g27
g15
Ntp107
Rp108
(dp109
g31
g4
sg32
g25
sg33
g34
((lp110
tp111
Rp112
sg42
(dp113
sg44
g34
((lp114
tp115
Rp116
sg48
Nsg49
I00
sbsg26
g13
(g27
g15
Ntp117
Rp118
(dp119
g31
g4
sg32
g26
sg33
g34
((lp120
tp121
Rp122
sg42
(dp123
sg44
g34
((lp124
tp125
Rp126
sg48
Nsg49
I00
sbsbs.